target datalayout = "e-m:e-p270:32:32-p271:32:32-p272:64:64-i64:64-i128:128-f80:128-n8:16:32:64-S128"
target triple = "x86_64-pc-linux-gnu"

%struct.Dar_Lib_t_ = type { ptr, i32, i32, [222 x i32], [222 x ptr], ptr, i32, ptr, [222 x ptr], ptr, [222 x ptr], ptr, [222 x ptr], [222 x i32], [222 x ptr], ptr, i32, i32, i32, [222 x i32], [222 x ptr], ptr, i32, [222 x i32], [222 x ptr], ptr, i32, ptr, i32, ptr, ptr, ptr, ptr, ptr }
%struct.Dar_LibObj_t_ = type { i64 }

@s_DarLib = internal global ptr null, align 8
@.str.3 = private unnamed_addr constant [3 x i8] c"%c\00", align 1
@.str.4 = private unnamed_addr constant [2 x i8] c"(\00", align 1
@.str.5 = private unnamed_addr constant [2 x i8] c"'\00", align 1
@.str.6 = private unnamed_addr constant [2 x i8] c")\00", align 1

; Function Attrs: nounwind uwtable
define internal ptr @Dar_LibObj(ptr noundef %0, i32 noundef %1) #0 {
  %3 = alloca ptr, align 8
  %4 = alloca i32, align 4
  store ptr %0, ptr %3, align 8
  store i32 %1, ptr %4, align 4
  %5 = load ptr, ptr %3, align 8
  %6 = getelementptr inbounds %struct.Dar_Lib_t_, ptr %5, i32 0, i32 0
  %7 = load ptr, ptr %6, align 8
  %8 = load i32, ptr %4, align 4
  %9 = sext i32 %8 to i64
  %10 = getelementptr inbounds %struct.Dar_LibObj_t_, ptr %7, i64 %9
  ret ptr %10
}

; Function Attrs: nounwind uwtable
define void @Dar_LibObjPrint_rec(ptr noundef %0) #0 {
  %2 = alloca ptr, align 8
  store ptr %0, ptr %2, align 8
  %3 = load ptr, ptr %2, align 8
  %4 = load i64, ptr %3, align 4
  %5 = lshr i64 %4, 35
  %6 = and i64 %5, 1
  %7 = trunc i64 %6 to i32
  %8 = icmp ne i32 %7, 0
  br i1 %8, label %9, label %21

9:                                                ; preds = %1
  %10 = load ptr, ptr %2, align 8
  %11 = load ptr, ptr @s_DarLib, align 8
  %12 = getelementptr inbounds %struct.Dar_Lib_t_, ptr %11, i32 0, i32 0
  %13 = load ptr, ptr %12, align 8
  %14 = ptrtoint ptr %10 to i64
  %15 = ptrtoint ptr %13 to i64
  %16 = sub i64 %14, %15
  %17 = sdiv exact i64 %16, 8
  %18 = trunc i64 %17 to i32
  %19 = add nsw i32 97, %18
  %20 = call i32 (ptr, ...) @printf(ptr noundef @.str.3, i32 noundef %19)
  br label %55

21:                                               ; preds = %1
  %22 = call i32 (ptr, ...) @printf(ptr noundef @.str.4)
  %23 = load ptr, ptr @s_DarLib, align 8
  %24 = load ptr, ptr %2, align 8
  %25 = load i64, ptr %24, align 4
  %26 = and i64 %25, 65535
  %27 = trunc i64 %26 to i32
  %28 = call ptr @Dar_LibObj(ptr noundef %23, i32 noundef %27)
  call void @Dar_LibObjPrint_rec(ptr noundef %28)
  %29 = load ptr, ptr %2, align 8
  %30 = load i64, ptr %29, align 4
  %31 = lshr i64 %30, 32
  %32 = and i64 %31, 1
  %33 = trunc i64 %32 to i32
  %34 = icmp ne i32 %33, 0
  br i1 %34, label %35, label %37

35:                                               ; preds = %21
  %36 = call i32 (ptr, ...) @printf(ptr noundef @.str.5)
  br label %37

37:                                               ; preds = %35, %21
  %38 = load ptr, ptr @s_DarLib, align 8
  %39 = load ptr, ptr %2, align 8
  %40 = load i64, ptr %39, align 4
  %41 = lshr i64 %40, 16
  %42 = and i64 %41, 65535
  %43 = trunc i64 %42 to i32
  %44 = call ptr @Dar_LibObj(ptr noundef %38, i32 noundef %43)
  call void @Dar_LibObjPrint_rec(ptr noundef %44)
  %45 = load ptr, ptr %2, align 8
  %46 = load i64, ptr %45, align 4
  %47 = lshr i64 %46, 32
  %48 = and i64 %47, 1
  %49 = trunc i64 %48 to i32
  %50 = icmp ne i32 %49, 0
  br i1 %50, label %51, label %53

51:                                               ; preds = %37
  %52 = call i32 (ptr, ...) @printf(ptr noundef @.str.5)
  br label %53

53:                                               ; preds = %51, %37
  %54 = call i32 (ptr, ...) @printf(ptr noundef @.str.6)
  br label %55

55:                                               ; preds = %53, %9
  ret void
}