; Function Attrs: nofree nounwind uwtable
define void @Dar_LibObjPrint_rec(ptr noundef %0) local_unnamed_addr #10 {
  %2 = load i64, ptr %0, align 4
  %3 = and i64 %2, 34359738368
  %.not = icmp eq i64 %3, 0
  br i1 %.not, label %13, label %4

4:                                                ; preds = %1
  %5 = load ptr, ptr @s_DarLib, align 8
  %6 = load ptr, ptr %5, align 8
  %7 = ptrtoint ptr %0 to i64
  %8 = ptrtoint ptr %6 to i64
  %9 = sub i64 %7, %8
  %10 = lshr exact i64 %9, 3
  %11 = trunc i64 %10 to i32
  %12 = add nsw i32 %11, 97
  br label %30

13:                                               ; preds = %1
  %putchar = tail call i32 @putchar(i32 40)
  %14 = load ptr, ptr @s_DarLib, align 8
  %15 = load i64, ptr %0, align 4
  %16 = and i64 %15, 65535
  %.val12 = load ptr, ptr %14, align 8
  %17 = getelementptr inbounds nuw %struct.Dar_LibObj_t_, ptr %.val12, i64 %16
  tail call void @Dar_LibObjPrint_rec(ptr noundef %17)
  %18 = load i64, ptr %0, align 4
  %19 = and i64 %18, 4294967296
  %.not6 = icmp eq i64 %19, 0
  br i1 %.not6, label %21, label %20

20:                                               ; preds = %13
  %putchar7 = tail call i32 @putchar(i32 39)
  %.pre = load i64, ptr %0, align 4
  br label %21

21:                                               ; preds = %20, %13
  %22 = phi i64 [ %.pre, %20 ], [ %18, %13 ]
  %23 = load ptr, ptr @s_DarLib, align 8
  %24 = lshr i64 %22, 16
  %.val = load ptr, ptr %23, align 8
  %25 = and i64 %24, 65535
  %26 = getelementptr inbounds nuw %struct.Dar_LibObj_t_, ptr %.val, i64 %25
  tail call void @Dar_LibObjPrint_rec(ptr noundef %26)
  %27 = load i64, ptr %0, align 4
  %28 = and i64 %27, 4294967296
  %.not8 = icmp eq i64 %28, 0
  br i1 %.not8, label %30, label %29

29:                                               ; preds = %21
  %putchar9 = tail call i32 @putchar(i32 39)
  br label %30

30:                                               ; preds = %21, %29, %4
  %.sink = phi i32 [ %12, %4 ], [ 41, %29 ], [ 41, %21 ]
  %putchar10 = tail call i32 @putchar(i32 %.sink)
  ret void
}